0x0: 7F 45                                           jnle 0x47
0x2: 4C 46 02 01                                     add r8b, byte ptr [rcx]
0x6: 01 00                                           add dword ptr [rax], eax
0x8: 00 00                                           add byte ptr [rax], al
0xA: 00 00                                           add byte ptr [rax], al
0xC: 00 00                                           add byte ptr [rax], al
0xE: 00 00                                           add byte ptr [rax], al
0x10: 03 00                                           add eax, dword ptr [rax]
0x12: 3E 00 01                                        add byte ptr [rcx], al
0x15: 00 00                                           add byte ptr [rax], al
0x17: 00 00                                           add byte ptr [rax], al
0x19: 00 00                                           add byte ptr [rax], al
0x1B: 00 00                                           add byte ptr [rax], al
0x1D: 00 00                                           add byte ptr [rax], al
0x1F: 00 40 00                                        add byte ptr [rax], al
0x22: 00 00                                           add byte ptr [rax], al
0x24: 00 00                                           add byte ptr [rax], al
0x26: 00 00                                           add byte ptr [rax], al
0x28: 38 BB 03 00 00 00                               cmp byte ptr [rbx+0x3], bh
0x2E: 00 00                                           add byte ptr [rax], al
0x30: 00 00                                           add byte ptr [rax], al
0x32: 00 00                                           add byte ptr [rax], al
0x34: 40 00 38                                        add byte ptr [rax], dil
0x37: 00 09                                           add byte ptr [rcx], cl
0x39: 00 40 00                                        add byte ptr [rax], al
0x3C: 1D 00 1B 00 06                                  sbb eax, 0x6001b00
0x41: 00 00                                           add byte ptr [rax], al
0x43: 00 04 00                                        add byte ptr [rax+rax*1], al
0x46: 00 00                                           add byte ptr [rax], al
0x47: 00 40 00                                        add byte ptr [rax], al
0x48: 40 00 00                                        add byte ptr [rax], al
0x4A: 00 00                                           add byte ptr [rax], al
0x4B: 00 00                                           add byte ptr [rax], al
0x4C: 00 00                                           add byte ptr [rax], al
0x4D: 00 00                                           add byte ptr [rax], al
0x4E: 00 00                                           add byte ptr [rax], al
0x4F: 00 40 00                                        add byte ptr [rax], al
0x50: 40 00 00                                        add byte ptr [rax], al
0x52: 00 00                                           add byte ptr [rax], al
0x53: 00 00                                           add byte ptr [rax], al
0x54: 00 00                                           add byte ptr [rax], al
0x55: 00 00                                           add byte ptr [rax], al
0x56: 00 00                                           add byte ptr [rax], al
0x57: 00 40 00                                        add byte ptr [rax], al
0x58: 40 00 00                                        add byte ptr [rax], al
0x5A: 00 00                                           add byte ptr [rax], al
0x5B: 00 00                                           add byte ptr [rax], al
0x5C: 00 00                                           add byte ptr [rax], al
0x5D: 00 00                                           add byte ptr [rax], al
0x5E: 00 00                                           add byte ptr [rax], al
0x5F: 00 F8                                           add al, bh
0x60: F8                                              clc 
0x61: 01 00                                           add dword ptr [rax], eax
0x63: 00 00                                           add byte ptr [rax], al
0x65: 00 00                                           add byte ptr [rax], al
0x67: 00 F8                                           add al, bh
0x69: 01 00                                           add dword ptr [rax], eax
0x6B: 00 00                                           add byte ptr [rax], al
0x6D: 00 00                                           add byte ptr [rax], al
0x6F: 00 08                                           add byte ptr [rax], cl
0x71: 00 00                                           add byte ptr [rax], al
0x73: 00 00                                           add byte ptr [rax], al
0x75: 00 00                                           add byte ptr [rax], al
0x77: 00 01                                           add byte ptr [rcx], al
0x79: 00 00                                           add byte ptr [rax], al
0x7B: 00 04 00                                        add byte ptr [rax+rax*1], al
0x7E: 00 00                                           add byte ptr [rax], al
0x80: 00 00                                           add byte ptr [rax], al
0x82: 00 00                                           add byte ptr [rax], al
0x84: 00 00                                           add byte ptr [rax], al
0x86: 00 00                                           add byte ptr [rax], al
0x88: 00 00                                           add byte ptr [rax], al
0x8A: 00 00                                           add byte ptr [rax], al
0x8C: 00 00                                           add byte ptr [rax], al
0x8E: 00 00                                           add byte ptr [rax], al
0x90: 00 00                                           add byte ptr [rax], al
0x92: 00 00                                           add byte ptr [rax], al
0x94: 00 00                                           add byte ptr [rax], al
0x96: 00 00                                           add byte ptr [rax], al
0x98: 34 32                                           xor al, 0x32
0x9A: 01 00                                           add dword ptr [rax], eax
0x9C: 00 00                                           add byte ptr [rax], al
0x9E: 00 00                                           add byte ptr [rax], al
0xA0: 34 32                                           xor al, 0x32
0xA2: 01 00                                           add dword ptr [rax], eax
0xA4: 00 00                                           add byte ptr [rax], al
0xA6: 00 00                                           add byte ptr [rax], al
0xA8: 00 10                                           add byte ptr [rax], dl
0xAA: 00 00                                           add byte ptr [rax], al
0xAC: 00 00                                           add byte ptr [rax], al
0xAE: 00 00                                           add byte ptr [rax], al
0xAF: 00 01                                           add byte ptr [rcx], al
0xB0: 01 00                                           add dword ptr [rax], eax
0xB1: 00 00                                           add byte ptr [rax], al
0xB2: 00 00                                           add byte ptr [rax], al
0xB3: 00 05 00 00 00 40                               add byte ptr [rip+0x40000000], al
0xB4: 05 00 00 00 40                                  add eax, 0x40000000
0xB7: 00 40 32                                        add byte ptr [rax+0x32], al
0xB9: 32 01                                           xor al, byte ptr [rcx]
0xBA: 01 00                                           add dword ptr [rax], eax
0xBB: 00 00                                           add byte ptr [rax], al
0xBC: 00 00                                           add byte ptr [rax], al
0xBD: 00 00                                           add byte ptr [rax], al
0xBE: 00 00                                           add byte ptr [rax], al
0xBF: 00 40 42                                        add byte ptr [rax+0x42], al
0xC0: 40 42 01 00                                     add dword ptr [rax], eax
0xC2: 01 00                                           add dword ptr [rax], eax
0xC4: 00 00                                           add byte ptr [rax], al
0xC6: 00 00                                           add byte ptr [rax], al
0xC8: 40 42 01 00                                     add dword ptr [rax], eax
0xCC: 00 00                                           add byte ptr [rax], al
0xCE: 00 00                                           add byte ptr [rax], al
0xD0: 30 63 02                                        xor byte ptr [rbx+0x2], ah
0xD3: 00 00                                           add byte ptr [rax], al
0xD5: 00 00                                           add byte ptr [rax], al
0xD7: 00 30                                           add byte ptr [rax], dh
0xD9: 63 02                                           movsxd eax, dword ptr [rdx]
0xDB: 00 00                                           add byte ptr [rax], al
0xDD: 00 00                                           add byte ptr [rax], al
0xDF: 00 00                                           add byte ptr [rax], al
0xE1: 10 00                                           adc byte ptr [rax], al
0xE3: 00 00                                           add byte ptr [rax], al
0xE5: 00 00                                           add byte ptr [rax], al
0xE7: 00 01                                           add byte ptr [rcx], al
0xE9: 00 00                                           add byte ptr [rax], al
0xEB: 00 06                                           add byte ptr [rsi], al
0xED: 00 00                                           add byte ptr [rax], al
0xEF: 00 70 95                                        add byte ptr [rax-0x6b], dh
0xF2: 03 00                                           add eax, dword ptr [rax]
0xF4: 00 00                                           add byte ptr [rax], al
0xF6: 00 00                                           add byte ptr [rax], al
0xF8: 70 B5                                           jo 0xffffffffffffffb7
0xFA: 03 00                                           add eax, dword ptr [rax]
0xFC: 00 00                                           add byte ptr [rax], al
0xFE: 00 00                                           add byte ptr [rax], al
0x100: 70 B5                                           jo 0xffffffffffffffb7
0x102: 03 00                                           add eax, dword ptr [rax]
0x104: 00 00                                           add byte ptr [rax], al
0x106: 00 00                                           add byte ptr [rax], al
0x108: 30 03                                           xor byte ptr [rbx], al
0x10A: 00 00                                           add byte ptr [rax], al
0x10C: 00 00                                           add byte ptr [rax], al
0x10E: 00 00                                           add byte ptr [rax], al
0x110: 30 03                                           xor byte ptr [rbx], al
0x112: 00 00                                           add byte ptr [rax], al
0x114: 00 00                                           add byte ptr [rax], al
0x116: 00 00                                           add byte ptr [rax], al
0x118: 00 10                                           add byte ptr [rax], dl
0x11A: 00 00                                           add byte ptr [rax], al
0x11C: 00 00                                           add byte ptr [rax], al
0x11E: 00 00                                           add byte ptr [rax], al
0x120: 01 00                                           add dword ptr [rax], eax
0x122: 00 00                                           add byte ptr [rax], al
